###############################################################################
#                                                                             #
#                                                       16/Jun/2009  17:00:14 #
# IAR ANSI C/C++ Compiler V5.30.2.31295/W32 KICKSTART for ARM                 #
# Copyright 1999-2009 IAR Systems AB.                                         #
#                                                                             #
#    Cpu mode     =  thumb                                                    #
#    Endian       =  little                                                   #
#    Source file  =  F:\MyProjects\Tjinc\CAN & Uart over                      #
#                    IP\FWLib\library\src\stm32f10x_exti.c                    #
#    Command line =  "F:\MyProjects\Tjinc\CAN & Uart over                     #
#                    IP\FWLib\library\src\stm32f10x_exti.c" -D                #
#                    _DLIB_FILE_DESCRIPTOR -lC "F:\MyProjects\Tjinc\CAN &     #
#                    Uart over IP\Debug\List\" -o "F:\MyProjects\Tjinc\CAN &  #
#                    Uart over IP\Debug\Obj\" --no_unroll --no_inline         #
#                    --no_tbaa --no_scheduling --debug --endian=little        #
#                    --cpu=Cortex-M3 -e --fpu=None --dlib_config "D:\Program  #
#                    Files\IAR Systems\Embedded Workbench 5.4                 #
#                    Kickstart\arm\INC\DLib_Config_Normal.h" -I               #
#                    "F:\MyProjects\Tjinc\CAN & Uart over IP\Boards\" -I      #
#                    "F:\MyProjects\Tjinc\CAN & Uart over                     #
#                    IP\uCOS-II\Source\" -I "F:\MyProjects\Tjinc\CAN & Uart   #
#                    over IP\uCOS-II\Ports\arm-cortex-m3\Generic\IAR\" -I     #
#                    "F:\MyProjects\Tjinc\CAN & Uart over                     #
#                    IP\uC-CPU\ARM-Cortex-M3\IAR\" -I                         #
#                    "F:\MyProjects\Tjinc\CAN & Uart over IP\uC-CPU\" -I      #
#                    "F:\MyProjects\Tjinc\CAN & Uart over IP\uC-LIB\" -I      #
#                    "F:\MyProjects\Tjinc\CAN & Uart over                     #
#                    IP\FWLib\library\inc\" -I "F:\MyProjects\Tjinc\CAN &     #
#                    Uart over IP\Boards\BSP\" -I "F:\MyProjects\Tjinc\CAN &  #
#                    Uart over IP\Interrupt\" -I "D:\Program Files\IAR        #
#                    Systems\Embedded Workbench 5.4 Kickstart\arm\INC\" -Om   #
#    List file    =  F:\MyProjects\Tjinc\CAN & Uart over                      #
#                    IP\Debug\List\stm32f10x_exti.lst                         #
#    Object file  =  F:\MyProjects\Tjinc\CAN & Uart over                      #
#                    IP\Debug\Obj\stm32f10x_exti.o                            #
#                                                                             #
#                                                                             #
###############################################################################

F:\MyProjects\Tjinc\CAN & Uart over IP\FWLib\library\src\stm32f10x_exti.c
      1          /******************** (C) COPYRIGHT 2008 STMicroelectronics ********************
      2          * File Name          : stm32f10x_exti.c
      3          * Author             : MCD Application Team
      4          * Version            : V2.0.3
      5          * Date               : 09/22/2008
      6          * Description        : This file provides all the EXTI firmware functions.
      7          ********************************************************************************
      8          * THE PRESENT FIRMWARE WHICH IS FOR GUIDANCE ONLY AIMS AT PROVIDING CUSTOMERS
      9          * WITH CODING INFORMATION REGARDING THEIR PRODUCTS IN ORDER FOR THEM TO SAVE TIME.
     10          * AS A RESULT, STMICROELECTRONICS SHALL NOT BE HELD LIABLE FOR ANY DIRECT,
     11          * INDIRECT OR CONSEQUENTIAL DAMAGES WITH RESPECT TO ANY CLAIMS ARISING FROM THE
     12          * CONTENT OF SUCH FIRMWARE AND/OR THE USE MADE BY CUSTOMERS OF THE CODING
     13          * INFORMATION CONTAINED HEREIN IN CONNECTION WITH THEIR PRODUCTS.
     14          *******************************************************************************/
     15          
     16          /* Includes ------------------------------------------------------------------*/
     17          #include "stm32f10x_exti.h"
     18          
     19          /* Private typedef -----------------------------------------------------------*/
     20          /* Private define ------------------------------------------------------------*/
     21          #define EXTI_LineNone    ((u32)0x00000)  /* No interrupt selected */
     22          
     23          /* Private macro -------------------------------------------------------------*/
     24          /* Private variables ---------------------------------------------------------*/
     25          /* Private function prototypes -----------------------------------------------*/
     26          /* Private functions ---------------------------------------------------------*/
     27          
     28          /*******************************************************************************
     29          * Function Name  : EXTI_DeInit
     30          * Description    : Deinitializes the EXTI peripheral registers to their default 
     31          *                  reset values.
     32          * Input          : None
     33          * Output         : None
     34          * Return         : None
     35          *******************************************************************************/

   \                                 In section .text, align 4, keep-with-next
     36          void EXTI_DeInit(void)
     37          {
     38            EXTI->IMR = 0x00000000;
   \                     EXTI_DeInit:
   \   00000000   ....               LDR.N    R0,??DataTable4  ;; 0x40010400
   \   00000002   0021               MOVS     R1,#+0
   \   00000004   0160               STR      R1,[R0, #+0]
     39            EXTI->EMR = 0x00000000;
   \   00000006   4160               STR      R1,[R0, #+4]
     40            EXTI->RTSR = 0x00000000; 
   \   00000008   8160               STR      R1,[R0, #+8]
     41            EXTI->FTSR = 0x00000000; 
   \   0000000A   C160               STR      R1,[R0, #+12]
     42            EXTI->PR = 0x0007FFFF;
   \   0000000C   0149               LDR.N    R1,??EXTI_DeInit_0  ;; 0x7ffff
   \   0000000E   4161               STR      R1,[R0, #+20]
     43          }
   \   00000010   7047               BX       LR               ;; return
   \   00000012   00BF               Nop      
   \                     ??EXTI_DeInit_0:
   \   00000014   FFFF0700           DC32     0x7ffff
     44          
     45          /*******************************************************************************
     46          * Function Name  : EXTI_Init
     47          * Description    : Initializes the EXTI peripheral according to the specified
     48          *                  parameters in the EXTI_InitStruct.
     49          * Input          : - EXTI_InitStruct: pointer to a EXTI_InitTypeDef structure
     50          *                    that contains the configuration information for the EXTI
     51          *                    peripheral.
     52          * Output         : None
     53          * Return         : None
     54          *******************************************************************************/

   \                                 In section .text, align 2, keep-with-next
     55          void EXTI_Init(EXTI_InitTypeDef* EXTI_InitStruct)
     56          {
   \                     EXTI_Init:
   \   00000000   18B4               PUSH     {R3,R4}
     57            /* Check the parameters */
     58            assert_param(IS_EXTI_MODE(EXTI_InitStruct->EXTI_Mode));
     59            assert_param(IS_EXTI_TRIGGER(EXTI_InitStruct->EXTI_Trigger));
     60            assert_param(IS_EXTI_LINE(EXTI_InitStruct->EXTI_Line));  
     61            assert_param(IS_FUNCTIONAL_STATE(EXTI_InitStruct->EXTI_LineCmd));
     62               
     63            if (EXTI_InitStruct->EXTI_LineCmd != DISABLE)
   \   00000002   ....               LDR.N    R1,??DataTable4  ;; 0x40010400
   \   00000004   8279               LDRB     R2,[R0, #+6]
   \   00000006   002A               CMP      R2,#+0
   \   00000008   2FD0               BEQ.N    ??EXTI_Init_0
     64            {
     65              /* Clear EXTI line configuration */
     66              EXTI->IMR &= ~EXTI_InitStruct->EXTI_Line;
   \   0000000A   0A46               MOV      R2,R1
   \   0000000C   1368               LDR      R3,[R2, #+0]
   \   0000000E   0468               LDR      R4,[R0, #+0]
   \   00000010   E443               MVNS     R4,R4
   \   00000012   2340               ANDS     R3,R4,R3
   \   00000014   1360               STR      R3,[R2, #+0]
     67              EXTI->EMR &= ~EXTI_InitStruct->EXTI_Line;
   \   00000016   5368               LDR      R3,[R2, #+4]
   \   00000018   0468               LDR      R4,[R0, #+0]
   \   0000001A   E443               MVNS     R4,R4
   \   0000001C   2340               ANDS     R3,R4,R3
   \   0000001E   5360               STR      R3,[R2, #+4]
     68              
     69              *(vu32 *)(EXTI_BASE + (u32)EXTI_InitStruct->EXTI_Mode)|= EXTI_InitStruct->EXTI_Line;
   \   00000020   0379               LDRB     R3,[R0, #+4]
   \   00000022   CB58               LDR      R3,[R1, R3]
   \   00000024   0468               LDR      R4,[R0, #+0]
   \   00000026   2343               ORRS     R3,R4,R3
   \   00000028   0479               LDRB     R4,[R0, #+4]
   \   0000002A   0B51               STR      R3,[R1, R4]
     70          
     71              /* Clear Rising Falling edge configuration */
     72              EXTI->RTSR &= ~EXTI_InitStruct->EXTI_Line;
   \   0000002C   9368               LDR      R3,[R2, #+8]
   \   0000002E   0468               LDR      R4,[R0, #+0]
   \   00000030   E443               MVNS     R4,R4
   \   00000032   2340               ANDS     R3,R4,R3
   \   00000034   9360               STR      R3,[R2, #+8]
     73              EXTI->FTSR &= ~EXTI_InitStruct->EXTI_Line;
   \   00000036   D368               LDR      R3,[R2, #+12]
   \   00000038   0468               LDR      R4,[R0, #+0]
   \   0000003A   E443               MVNS     R4,R4
   \   0000003C   2340               ANDS     R3,R4,R3
   \   0000003E   D360               STR      R3,[R2, #+12]
     74              
     75              /* Select the trigger for the selected external interrupts */
     76              if (EXTI_InitStruct->EXTI_Trigger == EXTI_Trigger_Rising_Falling)
   \   00000040   4379               LDRB     R3,[R0, #+5]
   \   00000042   102B               CMP      R3,#+16
   \   00000044   09D1               BNE.N    ??EXTI_Init_1
     77              {
     78                /* Rising Falling edge */
     79                EXTI->RTSR |= EXTI_InitStruct->EXTI_Line;
   \   00000046   9168               LDR      R1,[R2, #+8]
   \   00000048   0368               LDR      R3,[R0, #+0]
   \   0000004A   1943               ORRS     R1,R3,R1
   \   0000004C   9160               STR      R1,[R2, #+8]
     80                EXTI->FTSR |= EXTI_InitStruct->EXTI_Line;
   \   0000004E   D168               LDR      R1,[R2, #+12]
   \   00000050   0068               LDR      R0,[R0, #+0]
   \   00000052   0843               ORRS     R0,R0,R1
   \   00000054   D060               STR      R0,[R2, #+12]
   \   00000056   11BC               POP      {R0,R4}
   \   00000058   7047               BX       LR
     81              }
     82              else
     83              {
     84                *(vu32 *)(EXTI_BASE + (u32)EXTI_InitStruct->EXTI_Trigger)|= EXTI_InitStruct->EXTI_Line;
   \                     ??EXTI_Init_1:
   \   0000005A   1A46               MOV      R2,R3
   \   0000005C   8A58               LDR      R2,[R1, R2]
   \   0000005E   0368               LDR      R3,[R0, #+0]
   \   00000060   1A43               ORRS     R2,R3,R2
   \   00000062   4079               LDRB     R0,[R0, #+5]
   \   00000064   0A50               STR      R2,[R1, R0]
   \   00000066   11BC               POP      {R0,R4}
   \   00000068   7047               BX       LR
     85              }
     86            }
     87            else
     88            {
     89              /* Disable the selected external lines */
     90              *(vu32 *)(EXTI_BASE + (u32)EXTI_InitStruct->EXTI_Mode)&= ~EXTI_InitStruct->EXTI_Line;
   \                     ??EXTI_Init_0:
   \   0000006A   0279               LDRB     R2,[R0, #+4]
   \   0000006C   8A58               LDR      R2,[R1, R2]
   \   0000006E   0368               LDR      R3,[R0, #+0]
   \   00000070   DB43               MVNS     R3,R3
   \   00000072   1A40               ANDS     R2,R3,R2
   \   00000074   0079               LDRB     R0,[R0, #+4]
   \   00000076   0A50               STR      R2,[R1, R0]
     91            }
     92          }
   \   00000078   11BC               POP      {R0,R4}
   \   0000007A   7047               BX       LR               ;; return
     93          
     94          /*******************************************************************************
     95          * Function Name  : EXTI_StructInit
     96          * Description    : Fills each EXTI_InitStruct member with its reset value.
     97          * Input          : - EXTI_InitStruct: pointer to a EXTI_InitTypeDef structure
     98          *                    which will be initialized.
     99          * Output         : None
    100          * Return         : None
    101          *******************************************************************************/

   \                                 In section .text, align 2, keep-with-next
    102          void EXTI_StructInit(EXTI_InitTypeDef* EXTI_InitStruct)
    103          {
    104            EXTI_InitStruct->EXTI_Line = EXTI_LineNone;
   \                     EXTI_StructInit:
   \   00000000   0021               MOVS     R1,#+0
   \   00000002   0160               STR      R1,[R0, #+0]
    105            EXTI_InitStruct->EXTI_Mode = EXTI_Mode_Interrupt;
   \   00000004   0171               STRB     R1,[R0, #+4]
    106            EXTI_InitStruct->EXTI_Trigger = EXTI_Trigger_Falling;
   \   00000006   0C21               MOVS     R1,#+12
   \   00000008   4171               STRB     R1,[R0, #+5]
    107            EXTI_InitStruct->EXTI_LineCmd = DISABLE;
   \   0000000A   0021               MOVS     R1,#+0
   \   0000000C   8171               STRB     R1,[R0, #+6]
    108          }
   \   0000000E   7047               BX       LR               ;; return
    109          
    110          /*******************************************************************************
    111          * Function Name  : EXTI_GenerateSWInterrupt
    112          * Description    : Generates a Software interrupt.
    113          * Input          : - EXTI_Line: specifies the EXTI lines to be enabled or
    114          *                    disabled.
    115          *                    This parameter can be any combination of EXTI_Linex where 
    116          *                    x can be (0..18).
    117          * Output         : None
    118          * Return         : None
    119          *******************************************************************************/

   \                                 In section .text, align 4, keep-with-next
    120          void EXTI_GenerateSWInterrupt(u32 EXTI_Line)
    121          {
    122            /* Check the parameters */
    123            assert_param(IS_EXTI_LINE(EXTI_Line));
    124            
    125            EXTI->SWIER |= EXTI_Line;
   \                     EXTI_GenerateSWInterrupt:
   \   00000000   0249               LDR.N    R1,??EXTI_GenerateSWInterrupt_0  ;; 0x40010410
   \   00000002   0A68               LDR      R2,[R1, #+0]
   \   00000004   1043               ORRS     R0,R0,R2
   \   00000006   0860               STR      R0,[R1, #+0]
    126          }
   \   00000008   7047               BX       LR               ;; return
   \   0000000A   00BF               Nop      
   \                     ??EXTI_GenerateSWInterrupt_0:
   \   0000000C   10040140           DC32     0x40010410
    127          
    128          /*******************************************************************************
    129          * Function Name  : EXTI_GetFlagStatus
    130          * Description    : Checks whether the specified EXTI line flag is set or not.
    131          * Input          : - EXTI_Line: specifies the EXTI line flag to check.
    132          *                    This parameter can be:
    133          *                       - EXTI_Linex: External interrupt line x where x(0..18)
    134          * Output         : None
    135          * Return         : The new state of EXTI_Line (SET or RESET).
    136          *******************************************************************************/

   \                                 In section .text, align 2, keep-with-next
    137          FlagStatus EXTI_GetFlagStatus(u32 EXTI_Line)
    138          {
    139            FlagStatus bitstatus = RESET;
    140          
    141            /* Check the parameters */
    142            assert_param(IS_GET_EXTI_LINE(EXTI_Line));
    143            
    144            if ((EXTI->PR & EXTI_Line) != (u32)RESET)
   \                     EXTI_GetFlagStatus:
   \   00000000   ....               LDR.N    R1,??DataTable5  ;; 0x40010414
   \   00000002   0968               LDR      R1,[R1, #+0]
   \   00000004   0840               ANDS     R0,R0,R1
   \   00000006   401E               SUBS     R0,R0,#+1
   \   00000008   8041               SBCS     R0,R0,R0
   \   0000000A   C043               MVNS     R0,R0
   \   0000000C   C00F               LSRS     R0,R0,#+31
    145            {
    146              bitstatus = SET;
    147            }
    148            else
    149            {
    150              bitstatus = RESET;
    151            }
    152            return bitstatus;
   \   0000000E   7047               BX       LR               ;; return
    153          }
    154          
    155          /*******************************************************************************
    156          * Function Name  : EXTI_ClearFlag
    157          * Description    : Clears the EXTI’s line pending flags.
    158          * Input          : - EXTI_Line: specifies the EXTI lines flags to clear.
    159          *                    This parameter can be any combination of EXTI_Linex where 
    160          *                    x can be (0..18).
    161          * Output         : None
    162          * Return         : None
    163          *******************************************************************************/

   \                                 In section .text, align 2, keep-with-next
    164          void EXTI_ClearFlag(u32 EXTI_Line)
    165          {
    166            /* Check the parameters */
    167            assert_param(IS_EXTI_LINE(EXTI_Line));
    168            
    169            EXTI->PR = EXTI_Line;
   \                     EXTI_ClearFlag:
   \   00000000   ....               LDR.N    R1,??DataTable5  ;; 0x40010414
   \   00000002   0860               STR      R0,[R1, #+0]
    170          }
   \   00000004   7047               BX       LR               ;; return
    171          
    172          /*******************************************************************************
    173          * Function Name  : EXTI_GetITStatus
    174          * Description    : Checks whether the specified EXTI line is asserted or not.
    175          * Input          : - EXTI_Line: specifies the EXTI line to check.
    176          *                    This parameter can be:
    177          *                       - EXTI_Linex: External interrupt line x where x(0..18)
    178          * Output         : None
    179          * Return         : The new state of EXTI_Line (SET or RESET).
    180          *******************************************************************************/

   \                                 In section .text, align 2, keep-with-next
    181          ITStatus EXTI_GetITStatus(u32 EXTI_Line)
    182          {
    183            ITStatus bitstatus = RESET;
    184            u32 enablestatus = 0;
    185          
    186            /* Check the parameters */
    187            assert_param(IS_GET_EXTI_LINE(EXTI_Line));
    188            
    189            enablestatus =  EXTI->IMR & EXTI_Line;
   \                     EXTI_GetITStatus:
   \   00000000   ....               LDR.N    R1,??DataTable4  ;; 0x40010400
   \   00000002   0A68               LDR      R2,[R1, #+0]
   \   00000004   0240               ANDS     R2,R0,R2
    190          
    191            if (((EXTI->PR & EXTI_Line) != (u32)RESET) && (enablestatus != (u32)RESET))
   \   00000006   4969               LDR      R1,[R1, #+20]
   \   00000008   0842               TST      R0,R1
   \   0000000A   05D0               BEQ.N    ??EXTI_GetITStatus_0
   \   0000000C   1046               MOV      R0,R2
   \   0000000E   401E               SUBS     R0,R0,#+1
   \   00000010   8041               SBCS     R0,R0,R0
   \   00000012   C043               MVNS     R0,R0
   \   00000014   C00F               LSRS     R0,R0,#+31
   \   00000016   7047               BX       LR
    192            {
    193              bitstatus = SET;
    194            }
    195            else
    196            {
    197              bitstatus = RESET;
   \                     ??EXTI_GetITStatus_0:
   \   00000018   0020               MOVS     R0,#+0
    198            }
    199            return bitstatus;
   \   0000001A   7047               BX       LR               ;; return
    200          }
    201          
    202          /*******************************************************************************
    203          * Function Name  : EXTI_ClearITPendingBit
    204          * Description    : Clears the EXTI’s line pending bits.
    205          * Input          : - EXTI_Line: specifies the EXTI lines to clear.
    206          *                    This parameter can be any combination of EXTI_Linex where 
    207          *                    x can be (0..18).
    208          * Output         : None
    209          * Return         : None
    210          *******************************************************************************/

   \                                 In section .text, align 2, keep-with-next
    211          void EXTI_ClearITPendingBit(u32 EXTI_Line)
    212          {
    213            /* Check the parameters */
    214            assert_param(IS_EXTI_LINE(EXTI_Line));
    215            
    216            EXTI->PR = EXTI_Line;
   \                     EXTI_ClearITPendingBit:
   \   00000000   ....               LDR.N    R1,??DataTable5  ;; 0x40010414
   \   00000002   0860               STR      R0,[R1, #+0]
    217          }
   \   00000004   7047               BX       LR               ;; return

   \                                 In section .text, align 4, keep-with-next
   \                     ??DataTable4:
   \   00000000   00040140           DC32     0x40010400

   \                                 In section .text, align 4, keep-with-next
   \                     ??DataTable5:
   \   00000000   14040140           DC32     0x40010414
    218          
    219          /******************* (C) COPYRIGHT 2008 STMicroelectronics *****END OF FILE****/

   Maximum stack usage in bytes:

     Function                 .cstack
     --------                 -------
     EXTI_ClearFlag                0
     EXTI_ClearITPendingBit        0
     EXTI_DeInit                   0
     EXTI_GenerateSWInterrupt      0
     EXTI_GetFlagStatus            0
     EXTI_GetITStatus              0
     EXTI_Init                     8
     EXTI_StructInit               0


   Section sizes:

     Function/Label           Bytes
     --------------           -----
     EXTI_DeInit                24
     EXTI_Init                 124
     EXTI_StructInit            16
     EXTI_GenerateSWInterrupt   16
     EXTI_GetFlagStatus         16
     EXTI_ClearFlag              6
     EXTI_GetITStatus           28
     EXTI_ClearITPendingBit      6
     ??DataTable4                4
     ??DataTable5                4

 
 244 bytes in section .text
 
 244 bytes of CODE memory

Errors: none
Warnings: none
